target datalayout = "e-m:e-p270:32:32-p271:32:32-p272:64:64-i64:64-i128:128-f80:128-n8:16:32:64-S128"
target triple = "x86_64-unknown-linux-gnu"

%"class.icu_75::TransliteratorParser" = type <{ [8 x i8], %"class.icu_75::UVector", %"class.icu_75::UVector", ptr, ptr, i32, %struct.UParseError, [4 x i8], ptr, %"class.icu_75::UVector", %"class.icu_75::Hashtable", %"class.icu_75::UnicodeString", %"class.icu_75::UVector", i16, i16, [4 x i8], %"class.icu_75::UnicodeString", i16, [6 x i8] }>
%struct.UParseError = type { i32, i32, [16 x i16], [16 x i16] }
%"class.icu_75::Hashtable" = type { ptr, %struct.UHashtable }
%struct.UHashtable = type { ptr, ptr, ptr, ptr, ptr, ptr, i32, i32, i32, i32, float, float, i8, i8 }
%"class.icu_75::UVector" = type { %"class.icu_75::UObject", i32, i32, ptr, ptr, ptr }
%"class.icu_75::UObject" = type { ptr }
%"class.icu_75::UnicodeString" = type { %"class.icu_75::Replaceable", %"union.icu_75::UnicodeString::StackBufferOrFields" }
%"class.icu_75::Replaceable" = type { %"class.icu_75::UObject" }
%"union.icu_75::UnicodeString::StackBufferOrFields" = type { %struct.anon.0, [32 x i8] }
%struct.anon.0 = type { i16, i32, i32, ptr }
%"class.icu_75::RuleBasedTransliterator" = type <{ %"class.icu_75::Transliterator.base", [4 x i8], ptr, i8, [7 x i8] }>
%"class.icu_75::Transliterator.base" = type <{ %"class.icu_75::UObject", %"class.icu_75::UnicodeString", ptr, i32 }>
%"class.icu_75::TransliterationRuleData" = type { [8 x i8], %"class.icu_75::TransliterationRuleSet", %"class.icu_75::Hashtable", ptr, i8, i16, i32 }
%"class.icu_75::TransliterationRuleSet" = type { ptr, ptr, ptr, [257 x i32], i32 }

; Function Attrs: mustprogress nounwind uwtable
define linkonce_odr noundef i32 @_ZNK6icu_757UVector4sizeEv(ptr noundef nonnull align 8 dereferenceable(40) %this) #0 comdat align 2 {
entry:
  %this.addr = alloca ptr, align 8
  store ptr %this, ptr %this.addr, align 8
  %this1 = load ptr, ptr %this.addr, align 8
  %count = getelementptr inbounds %"class.icu_75::UVector", ptr %this1, i32 0, i32 1
  %0 = load i32, ptr %count, align 8
  ret i32 %0
}

; Function Attrs: mustprogress nounwind uwtable
define internal noundef signext i8 @_ZL9U_FAILURE10UErrorCode(i32 noundef %code) #0 {
entry:
  %code.addr = alloca i32, align 4
  store i32 %code, ptr %code.addr, align 4
  %0 = load i32, ptr %code.addr, align 4
  %cmp = icmp sgt i32 %0, 0
  %conv = zext i1 %cmp to i8
  ret i8 %conv
}

; Function Attrs: mustprogress uwtable
define void @_ZN6icu_7523RuleBasedTransliterator10_constructERKNS_13UnicodeStringE15UTransDirectionR11UParseErrorR10UErrorCode(ptr noundef nonnull align 8 dereferenceable(97) %this, ptr noundef nonnull align 8 dereferenceable(64) %rules, i32 noundef %direction, ptr noundef nonnull align 4 dereferenceable(72) %parseError, ptr noundef nonnull align 4 dereferenceable(4) %status) #1 align 2 personality ptr @__gxx_personality_v0 {
entry:
  %this.addr = alloca ptr, align 8
  %rules.addr = alloca ptr, align 8
  %direction.addr = alloca i32, align 4
  %parseError.addr = alloca ptr, align 8
  %status.addr = alloca ptr, align 8
  %parser = alloca %"class.icu_75::TransliteratorParser", align 8
  %exn.slot = alloca ptr, align 8
  %ehselector.slot = alloca i32, align 4
  %cleanup.dest.slot = alloca i32, align 4
  store ptr %this, ptr %this.addr, align 8
  store ptr %rules, ptr %rules.addr, align 8
  store i32 %direction, ptr %direction.addr, align 4
  store ptr %parseError, ptr %parseError.addr, align 8
  store ptr %status, ptr %status.addr, align 8
  %this1 = load ptr, ptr %this.addr, align 8
  %fData = getelementptr inbounds %"class.icu_75::RuleBasedTransliterator", ptr %this1, i32 0, i32 2
  store ptr null, ptr %fData, align 8
  %isDataOwned = getelementptr inbounds %"class.icu_75::RuleBasedTransliterator", ptr %this1, i32 0, i32 3
  store i8 1, ptr %isDataOwned, align 8
  %0 = load ptr, ptr %status.addr, align 8
  %1 = load i32, ptr %0, align 4
  %call = call noundef signext i8 @_ZL9U_FAILURE10UErrorCode(i32 noundef %1)
  %tobool = icmp ne i8 %call, 0
  br i1 %tobool, label %if.then, label %if.end

if.then:                                          ; preds = %entry
  br label %cleanup.cont

if.end:                                           ; preds = %entry
  %2 = load ptr, ptr %status.addr, align 8
  call void @_ZN6icu_7520TransliteratorParserC1ER10UErrorCode(ptr noundef nonnull align 8 dereferenceable(498) %parser, ptr noundef nonnull align 4 dereferenceable(4) %2)
  %3 = load ptr, ptr %rules.addr, align 8
  %4 = load i32, ptr %direction.addr, align 4
  %5 = load ptr, ptr %parseError.addr, align 8
  %6 = load ptr, ptr %status.addr, align 8
  invoke void @_ZN6icu_7520TransliteratorParser5parseERKNS_13UnicodeStringE15UTransDirectionR11UParseErrorR10UErrorCode(ptr noundef nonnull align 8 dereferenceable(498) %parser, ptr noundef nonnull align 8 dereferenceable(64) %3, i32 noundef %4, ptr noundef nonnull align 4 dereferenceable(72) %5, ptr noundef nonnull align 4 dereferenceable(4) %6)
          to label %invoke.cont unwind label %lpad

invoke.cont:                                      ; preds = %if.end
  %7 = load ptr, ptr %status.addr, align 8
  %8 = load i32, ptr %7, align 4
  %call3 = invoke noundef signext i8 @_ZL9U_FAILURE10UErrorCode(i32 noundef %8)
          to label %invoke.cont2 unwind label %lpad

invoke.cont2:                                     ; preds = %invoke.cont
  %tobool4 = icmp ne i8 %call3, 0
  br i1 %tobool4, label %if.then5, label %if.end6

if.then5:                                         ; preds = %invoke.cont2
  store i32 1, ptr %cleanup.dest.slot, align 4
  br label %cleanup

lpad:                                             ; preds = %invoke.cont21, %invoke.cont17, %if.end15, %lor.lhs.false10, %if.end6, %invoke.cont, %if.end
  %9 = landingpad { ptr, i32 }
          cleanup
  %10 = extractvalue { ptr, i32 } %9, 0
  store ptr %10, ptr %exn.slot, align 8
  %11 = extractvalue { ptr, i32 } %9, 1
  store i32 %11, ptr %ehselector.slot, align 4
  call void @_ZN6icu_7520TransliteratorParserD1Ev(ptr noundef nonnull align 8 dereferenceable(498) %parser) #5
  br label %eh.resume

if.end6:                                          ; preds = %invoke.cont2
  %idBlockVector = getelementptr inbounds %"class.icu_75::TransliteratorParser", ptr %parser, i32 0, i32 2
  %call8 = invoke noundef i32 @_ZNK6icu_757UVector4sizeEv(ptr noundef nonnull align 8 dereferenceable(40) %idBlockVector)
          to label %invoke.cont7 unwind label %lpad

invoke.cont7:                                     ; preds = %if.end6
  %cmp = icmp ne i32 %call8, 0
  br i1 %cmp, label %if.then14, label %lor.lhs.false

lor.lhs.false:                                    ; preds = %invoke.cont7
  %compoundFilter = getelementptr inbounds %"class.icu_75::TransliteratorParser", ptr %parser, i32 0, i32 3
  %12 = load ptr, ptr %compoundFilter, align 8
  %cmp9 = icmp ne ptr %12, null
  br i1 %cmp9, label %if.then14, label %lor.lhs.false10

lor.lhs.false10:                                  ; preds = %lor.lhs.false
  %dataVector = getelementptr inbounds %"class.icu_75::TransliteratorParser", ptr %parser, i32 0, i32 1
  %call12 = invoke noundef i32 @_ZNK6icu_757UVector4sizeEv(ptr noundef nonnull align 8 dereferenceable(40) %dataVector)
          to label %invoke.cont11 unwind label %lpad

invoke.cont11:                                    ; preds = %lor.lhs.false10
  %cmp13 = icmp eq i32 %call12, 0
  br i1 %cmp13, label %if.then14, label %if.end15

if.then14:                                        ; preds = %invoke.cont11, %lor.lhs.false, %invoke.cont7
  %13 = load ptr, ptr %status.addr, align 8
  store i32 65560, ptr %13, align 4
  store i32 1, ptr %cleanup.dest.slot, align 4
  br label %cleanup

if.end15:                                         ; preds = %invoke.cont11
  %dataVector16 = getelementptr inbounds %"class.icu_75::TransliteratorParser", ptr %parser, i32 0, i32 1
  %call18 = invoke noundef ptr @_ZN6icu_757UVector15orphanElementAtEi(ptr noundef nonnull align 8 dereferenceable(40) %dataVector16, i32 noundef 0)
          to label %invoke.cont17 unwind label %lpad

invoke.cont17:                                    ; preds = %if.end15
  %fData19 = getelementptr inbounds %"class.icu_75::RuleBasedTransliterator", ptr %this1, i32 0, i32 2
  store ptr %call18, ptr %fData19, align 8
  %fData20 = getelementptr inbounds %"class.icu_75::RuleBasedTransliterator", ptr %this1, i32 0, i32 2
  %14 = load ptr, ptr %fData20, align 8
  %ruleSet = getelementptr inbounds %"class.icu_75::TransliterationRuleData", ptr %14, i32 0, i32 1
  %call22 = invoke noundef i32 @_ZNK6icu_7522TransliterationRuleSet23getMaximumContextLengthEv(ptr noundef nonnull align 8 dereferenceable(1056) %ruleSet)
          to label %invoke.cont21 unwind label %lpad

invoke.cont21:                                    ; preds = %invoke.cont17
  invoke void @_ZN6icu_7514Transliterator23setMaximumContextLengthEi(ptr noundef nonnull align 8 dereferenceable(84) %this1, i32 noundef %call22)
          to label %invoke.cont23 unwind label %lpad

invoke.cont23:                                    ; preds = %invoke.cont21
  store i32 0, ptr %cleanup.dest.slot, align 4
  br label %cleanup

cleanup:                                          ; preds = %invoke.cont23, %if.then14, %if.then5
  call void @_ZN6icu_7520TransliteratorParserD1Ev(ptr noundef nonnull align 8 dereferenceable(498) %parser) #5
  %cleanup.dest = load i32, ptr %cleanup.dest.slot, align 4
  switch i32 %cleanup.dest, label %unreachable [
    i32 0, label %cleanup.cont
    i32 1, label %cleanup.cont
  ]

cleanup.cont:                                     ; preds = %cleanup, %cleanup, %if.then
  ret void

eh.resume:                                        ; preds = %lpad
  %exn = load ptr, ptr %exn.slot, align 8
  %sel = load i32, ptr %ehselector.slot, align 4
  %lpad.val = insertvalue { ptr, i32 } poison, ptr %exn, 0
  %lpad.val24 = insertvalue { ptr, i32 } %lpad.val, i32 %sel, 1
  resume { ptr, i32 } %lpad.val24

unreachable:                                      ; preds = %cleanup
  unreachable
}