; Function Attrs: mustprogress uwtable
define void @_ZN6icu_7523RuleBasedTransliterator10_constructERKNS_13UnicodeStringE15UTransDirectionR11UParseErrorR10UErrorCode(ptr noundef nonnull align 8 dereferenceable(97) %this, ptr noundef nonnull align 8 dereferenceable(64) %rules, i32 noundef %direction, ptr noundef nonnull align 4 dereferenceable(72) %parseError, ptr noundef nonnull align 4 dereferenceable(4) %status) local_unnamed_addr #1 align 2 personality ptr @__gxx_personality_v0 {
entry:
  %parser = alloca %"class.icu_75::TransliteratorParser", align 8
  %fData = getelementptr inbounds i8, ptr %this, i64 88
  store ptr null, ptr %fData, align 8
  %isDataOwned = getelementptr inbounds i8, ptr %this, i64 96
  store i8 1, ptr %isDataOwned, align 8
  %0 = load i32, ptr %status, align 4
  %cmp.i = icmp slt i32 %0, 1
  br i1 %cmp.i, label %if.end, label %cleanup.cont

if.end:                                           ; preds = %entry
  call void @_ZN6icu_7520TransliteratorParserC1ER10UErrorCode(ptr noundef nonnull align 8 dereferenceable(498) %parser, ptr noundef nonnull align 4 dereferenceable(4) %status)
  invoke void @_ZN6icu_7520TransliteratorParser5parseERKNS_13UnicodeStringE15UTransDirectionR11UParseErrorR10UErrorCode(ptr noundef nonnull align 8 dereferenceable(498) %parser, ptr noundef nonnull align 8 dereferenceable(64) %rules, i32 noundef %direction, ptr noundef nonnull align 4 dereferenceable(72) %parseError, ptr noundef nonnull align 4 dereferenceable(4) %status)
          to label %invoke.cont unwind label %lpad

invoke.cont:                                      ; preds = %if.end
  %1 = load i32, ptr %status, align 4
  %cmp.i5 = icmp slt i32 %1, 1
  br i1 %cmp.i5, label %if.end6, label %cleanup

lpad:                                             ; preds = %invoke.cont21, %invoke.cont17, %if.end15, %if.end
  %2 = landingpad { ptr, i32 }
          cleanup
  call void @_ZN6icu_7520TransliteratorParserD1Ev(ptr noundef nonnull align 8 dereferenceable(498) %parser) #6
  resume { ptr, i32 } %2

if.end6:                                          ; preds = %invoke.cont
  %count.i = getelementptr inbounds i8, ptr %parser, i64 56
  %3 = load i32, ptr %count.i, align 8
  %cmp = icmp ne i32 %3, 0
  %compoundFilter = getelementptr inbounds i8, ptr %parser, i64 88
  %4 = load ptr, ptr %compoundFilter, align 8
  %cmp9 = icmp ne ptr %4, null
  %or.cond = select i1 %cmp, i1 true, i1 %cmp9
  %count.i7 = getelementptr inbounds i8, ptr %parser, i64 16
  %5 = load i32, ptr %count.i7, align 8
  %cmp13 = icmp eq i32 %5, 0
  %or.cond8 = select i1 %or.cond, i1 true, i1 %cmp13
  br i1 %or.cond8, label %if.then14, label %if.end15

if.then14:                                        ; preds = %if.end6
  store i32 65560, ptr %status, align 4
  br label %cleanup

if.end15:                                         ; preds = %if.end6
  %dataVector = getelementptr inbounds i8, ptr %parser, i64 8
  %call18 = invoke noundef ptr @_ZN6icu_757UVector15orphanElementAtEi(ptr noundef nonnull align 8 dereferenceable(40) %dataVector, i32 noundef 0)
          to label %invoke.cont17 unwind label %lpad

invoke.cont17:                                    ; preds = %if.end15
  store ptr %call18, ptr %fData, align 8
  %ruleSet = getelementptr inbounds i8, ptr %call18, i64 8
  %call22 = invoke noundef i32 @_ZNK6icu_7522TransliterationRuleSet23getMaximumContextLengthEv(ptr noundef nonnull align 8 dereferenceable(1056) %ruleSet)
          to label %invoke.cont21 unwind label %lpad

invoke.cont21:                                    ; preds = %invoke.cont17
  invoke void @_ZN6icu_7514Transliterator23setMaximumContextLengthEi(ptr noundef nonnull align 8 dereferenceable(84) %this, i32 noundef %call22)
          to label %cleanup unwind label %lpad

cleanup:                                          ; preds = %invoke.cont21, %invoke.cont, %if.then14
  call void @_ZN6icu_7520TransliteratorParserD1Ev(ptr noundef nonnull align 8 dereferenceable(498) %parser) #6
  br label %cleanup.cont

cleanup.cont:                                     ; preds = %entry, %cleanup
  ret void
}